target datalayout = "e-m:e-p270:32:32-p271:32:32-p272:64:64-i64:64-i128:128-f80:128-n8:16:32:64-S128"
target triple = "x86_64-pc-linux-gnu"

%struct.bitmap = type { ptr, i64 }
%struct.ewah_iterator = type { ptr, i64, i64, i64, i64, i64, i64, i32 }

@.str = private unnamed_addr constant [27 x i8] c"size_t overflow: %lu * %lu\00", align 1

; Function Attrs: nounwind uwtable
define dso_local ptr @bitmap_word_alloc(i64 noundef %0) #0 {
  %2 = alloca i64, align 8
  %3 = alloca ptr, align 8
  store i64 %0, ptr %2, align 8, !tbaa !4
  call void @llvm.lifetime.start.p0(i64 8, ptr %3) #8
  %4 = call ptr @xmalloc(i64 noundef 16)
  store ptr %4, ptr %3, align 8, !tbaa !8
  %5 = load i64, ptr %2, align 8, !tbaa !4
  %6 = call ptr @xcalloc(i64 noundef %5, i64 noundef 8)
  %7 = load ptr, ptr %3, align 8, !tbaa !8
  %8 = getelementptr inbounds nuw %struct.bitmap, ptr %7, i32 0, i32 0
  store ptr %6, ptr %8, align 8, !tbaa !11
  %9 = load i64, ptr %2, align 8, !tbaa !4
  %10 = load ptr, ptr %3, align 8, !tbaa !8
  %11 = getelementptr inbounds nuw %struct.bitmap, ptr %10, i32 0, i32 1
  store i64 %9, ptr %11, align 8, !tbaa !14
  %12 = load ptr, ptr %3, align 8, !tbaa !8
  call void @llvm.lifetime.end.p0(i64 8, ptr %3) #8
  ret ptr %12
}

; Function Attrs: inlinehint nounwind uwtable
define internal i64 @st_mult(i64 noundef %0, i64 noundef %1) #3 {
  %3 = alloca i64, align 8
  %4 = alloca i64, align 8
  store i64 %0, ptr %3, align 8, !tbaa !4
  store i64 %1, ptr %4, align 8, !tbaa !4
  %5 = load i64, ptr %3, align 8, !tbaa !4
  %6 = icmp ne i64 %5, 0
  br i1 %6, label %7, label %15

7:                                                ; preds = %2
  %8 = load i64, ptr %4, align 8, !tbaa !4
  %9 = load i64, ptr %3, align 8, !tbaa !4
  %10 = udiv i64 -1, %9
  %11 = icmp ugt i64 %8, %10
  br i1 %11, label %12, label %15

12:                                               ; preds = %7
  %13 = load i64, ptr %3, align 8, !tbaa !4
  %14 = load i64, ptr %4, align 8, !tbaa !4
  call void (ptr, ...) @die(ptr noundef @.str, i64 noundef %13, i64 noundef %14) #9
  unreachable

15:                                               ; preds = %7, %2
  %16 = load i64, ptr %3, align 8, !tbaa !4
  %17 = load i64, ptr %4, align 8, !tbaa !4
  %18 = mul i64 %16, %17
  ret i64 %18
}

; Function Attrs: nounwind uwtable
define dso_local ptr @bitmap_new() #0 {
  %1 = call ptr @bitmap_word_alloc(i64 noundef 32)
  ret ptr %1
}

; Function Attrs: nounwind uwtable
define dso_local ptr @ewah_to_bitmap(ptr noundef %0) #0 {
  %2 = alloca ptr, align 8
  %3 = alloca ptr, align 8
  %4 = alloca %struct.ewah_iterator, align 8
  %5 = alloca i64, align 8
  %6 = alloca i64, align 8
  store ptr %0, ptr %2, align 8, !tbaa !16
  call void @llvm.lifetime.start.p0(i64 8, ptr %3) #8
  %7 = call ptr @bitmap_new()
  store ptr %7, ptr %3, align 8, !tbaa !8
  call void @llvm.lifetime.start.p0(i64 64, ptr %4) #8
  call void @llvm.lifetime.start.p0(i64 8, ptr %5) #8
  call void @llvm.lifetime.start.p0(i64 8, ptr %6) #8
  store i64 0, ptr %6, align 8, !tbaa !4
  %8 = load ptr, ptr %2, align 8, !tbaa !16
  call void @ewah_iterator_init(ptr noundef %4, ptr noundef %8)
  br label %9

9:                                                ; preds = %57, %1
  %10 = call i32 @ewah_iterator_next(ptr noundef %5, ptr noundef %4)
  %11 = icmp ne i32 %10, 0
  br i1 %11, label %12, label %65

12:                                               ; preds = %9
  br label %13

13:                                               ; preds = %12
  %14 = load i64, ptr %6, align 8, !tbaa !4
  %15 = add i64 %14, 1
  %16 = load ptr, ptr %3, align 8, !tbaa !8
  %17 = getelementptr inbounds nuw %struct.bitmap, ptr %16, i32 0, i32 1
  %18 = load i64, ptr %17, align 8, !tbaa !14
  %19 = icmp ugt i64 %15, %18
  br i1 %19, label %20, label %55

20:                                               ; preds = %13
  %21 = load ptr, ptr %3, align 8, !tbaa !8
  %22 = getelementptr inbounds nuw %struct.bitmap, ptr %21, i32 0, i32 1
  %23 = load i64, ptr %22, align 8, !tbaa !14
  %24 = add i64 %23, 16
  %25 = mul i64 %24, 3
  %26 = udiv i64 %25, 2
  %27 = load i64, ptr %6, align 8, !tbaa !4
  %28 = add i64 %27, 1
  %29 = icmp ult i64 %26, %28
  br i1 %29, label %30, label %35

30:                                               ; preds = %20
  %31 = load i64, ptr %6, align 8, !tbaa !4
  %32 = add i64 %31, 1
  %33 = load ptr, ptr %3, align 8, !tbaa !8
  %34 = getelementptr inbounds nuw %struct.bitmap, ptr %33, i32 0, i32 1
  store i64 %32, ptr %34, align 8, !tbaa !14
  br label %44

35:                                               ; preds = %20
  %36 = load ptr, ptr %3, align 8, !tbaa !8
  %37 = getelementptr inbounds nuw %struct.bitmap, ptr %36, i32 0, i32 1
  %38 = load i64, ptr %37, align 8, !tbaa !14
  %39 = add i64 %38, 16
  %40 = mul i64 %39, 3
  %41 = udiv i64 %40, 2
  %42 = load ptr, ptr %3, align 8, !tbaa !8
  %43 = getelementptr inbounds nuw %struct.bitmap, ptr %42, i32 0, i32 1
  store i64 %41, ptr %43, align 8, !tbaa !14
  br label %44

44:                                               ; preds = %35, %30
  %45 = load ptr, ptr %3, align 8, !tbaa !8
  %46 = getelementptr inbounds nuw %struct.bitmap, ptr %45, i32 0, i32 0
  %47 = load ptr, ptr %46, align 8, !tbaa !11
  %48 = load ptr, ptr %3, align 8, !tbaa !8
  %49 = getelementptr inbounds nuw %struct.bitmap, ptr %48, i32 0, i32 1
  %50 = load i64, ptr %49, align 8, !tbaa !14
  %51 = call i64 @st_mult(i64 noundef 8, i64 noundef %50)
  %52 = call ptr @xrealloc(ptr noundef %47, i64 noundef %51)
  %53 = load ptr, ptr %3, align 8, !tbaa !8
  %54 = getelementptr inbounds nuw %struct.bitmap, ptr %53, i32 0, i32 0
  store ptr %52, ptr %54, align 8, !tbaa !11
  br label %55

55:                                               ; preds = %44, %13
  br label %56

56:                                               ; preds = %55
  br label %57

57:                                               ; preds = %56
  %58 = load i64, ptr %5, align 8, !tbaa !4
  %59 = load ptr, ptr %3, align 8, !tbaa !8
  %60 = getelementptr inbounds nuw %struct.bitmap, ptr %59, i32 0, i32 0
  %61 = load ptr, ptr %60, align 8, !tbaa !11
  %62 = load i64, ptr %6, align 8, !tbaa !4
  %63 = add i64 %62, 1
  store i64 %63, ptr %6, align 8, !tbaa !4
  %64 = getelementptr inbounds nuw i64, ptr %61, i64 %62
  store i64 %58, ptr %64, align 8, !tbaa !4
  br label %9, !llvm.loop !20

65:                                               ; preds = %9
  %66 = load i64, ptr %6, align 8, !tbaa !4
  %67 = load ptr, ptr %3, align 8, !tbaa !8
  %68 = getelementptr inbounds nuw %struct.bitmap, ptr %67, i32 0, i32 1
  store i64 %66, ptr %68, align 8, !tbaa !14
  %69 = load ptr, ptr %3, align 8, !tbaa !8
  call void @llvm.lifetime.end.p0(i64 8, ptr %6) #8
  call void @llvm.lifetime.end.p0(i64 8, ptr %5) #8
  call void @llvm.lifetime.end.p0(i64 64, ptr %4) #8
  call void @llvm.lifetime.end.p0(i64 8, ptr %3) #8
  ret ptr %69
}