; Function Attrs: nounwind uwtable
define dso_local ptr @ewah_to_bitmap(ptr noundef %0) local_unnamed_addr #0 {
  %2 = alloca %struct.ewah_iterator, align 8
  %3 = alloca i64, align 8
  %4 = tail call ptr @xmalloc(i64 noundef 16) #13
  %5 = tail call ptr @xcalloc(i64 noundef 32, i64 noundef 8) #13
  store ptr %5, ptr %4, align 8, !tbaa !4
  %6 = getelementptr inbounds nuw i8, ptr %4, i64 8
  store i64 32, ptr %6, align 8, !tbaa !11
  call void @llvm.lifetime.start.p0(i64 64, ptr nonnull %2) #13
  call void @llvm.lifetime.start.p0(i64 8, ptr nonnull %3) #13
  call void @ewah_iterator_init(ptr noundef nonnull %2, ptr noundef %0) #13
  %7 = call i32 @ewah_iterator_next(ptr noundef nonnull %3, ptr noundef nonnull %2) #13
  %.not20 = icmp eq i32 %7, 0
  br i1 %.not20, label %._crit_edge, label %.lr.ph

.lr.ph:                                           ; preds = %1, %20
  %.021 = phi i64 [ %8, %20 ], [ 0, %1 ]
  %8 = add i64 %.021, 1
  %9 = load i64, ptr %6, align 8, !tbaa !11
  %10 = icmp ugt i64 %8, %9
  br i1 %10, label %11, label %.lr.ph._crit_edge

.lr.ph._crit_edge:                                ; preds = %.lr.ph
  %.pre = load ptr, ptr %4, align 8, !tbaa !4
  br label %20

11:                                               ; preds = %.lr.ph
  %12 = mul i64 %9, 3
  %13 = add i64 %12, 48
  %14 = lshr i64 %13, 1
  %. = call i64 @llvm.umax.i64(i64 %14, i64 %8)
  store i64 %., ptr %6, align 8, !tbaa !11
  %15 = icmp ugt i64 %., 2305843009213693951
  br i1 %15, label %16, label %st_mult.exit

16:                                               ; preds = %11
  call void (ptr, ...) @die(ptr noundef nonnull @.str, i64 noundef 8, i64 noundef %.) #14
  unreachable

st_mult.exit:                                     ; preds = %11
  %17 = load ptr, ptr %4, align 8, !tbaa !4
  %18 = shl nuw i64 %., 3
  %19 = call ptr @xrealloc(ptr noundef %17, i64 noundef %18) #13
  store ptr %19, ptr %4, align 8, !tbaa !4
  br label %20

20:                                               ; preds = %.lr.ph._crit_edge, %st_mult.exit
  %21 = phi ptr [ %.pre, %.lr.ph._crit_edge ], [ %19, %st_mult.exit ]
  %22 = load i64, ptr %3, align 8, !tbaa !12
  %23 = getelementptr inbounds nuw i64, ptr %21, i64 %.021
  store i64 %22, ptr %23, align 8, !tbaa !12
  %24 = call i32 @ewah_iterator_next(ptr noundef nonnull %3, ptr noundef nonnull %2) #13
  %.not = icmp eq i32 %24, 0
  br i1 %.not, label %._crit_edge, label %.lr.ph, !llvm.loop !15

._crit_edge:                                      ; preds = %20, %1
  %.0.lcssa = phi i64 [ 0, %1 ], [ %8, %20 ]
  store i64 %.0.lcssa, ptr %6, align 8, !tbaa !11
  call void @llvm.lifetime.end.p0(i64 8, ptr nonnull %3) #13
  call void @llvm.lifetime.end.p0(i64 64, ptr nonnull %2) #13
  ret ptr %4
}